target datalayout = "e-m:e-p270:32:32-p271:32:32-p272:64:64-i64:64-i128:128-f80:128-n8:16:32:64-S128"
target triple = "x86_64-pc-linux-gnu"

%struct.tng_trajectory = type { ptr, ptr, i64, ptr, ptr, ptr, ptr, ptr, ptr, i8, i8, ptr, ptr, ptr, ptr, ptr, ptr, ptr, ptr, ptr, i64, i64, i8, i64, i64, i64, double, i64, ptr, ptr, i64, i64, i64, i64, i64, %struct.tng_trajectory_frame_set, i64, i64, i64, i32, ptr, i32, ptr, ptr, ptr, double }
%struct.tng_trajectory_frame_set = type { i64, ptr, i64, i64, i64, i64, ptr, i64, i64, i64, i64, i64, i64, i64, double, i32, ptr, i32, ptr }
%struct.tng_molecule = type { i64, i64, i64, i64, i64, i64, ptr, ptr, ptr, ptr, ptr }

@stderr = external global ptr, align 8
@.str.1 = private unnamed_addr constant [130 x i8] c"generated/home/dtcxzyw/WorkSpace/Projects/compilers/llvm-opt-benchmark/bench/gromacs/gromacs/src/external/tng_io/src/lib/tng_io.c\00", align 1
@.str.4 = private unnamed_addr constant [64 x i8] c"TNG library: Could not find molecule in TNG trajectory. %s: %d\0A\00", align 1

; Function Attrs: nounwind uwtable
define i32 @tng_molecule_cnt_set(ptr noundef %0, ptr noundef %1, i64 noundef %2) #0 {
  %4 = alloca i32, align 4
  %5 = alloca ptr, align 8
  %6 = alloca ptr, align 8
  %7 = alloca i64, align 8
  %8 = alloca i64, align 8
  %9 = alloca i64, align 8
  %10 = alloca i64, align 8
  %11 = alloca i32, align 4
  store ptr %0, ptr %5, align 8, !tbaa !3
  store ptr %1, ptr %6, align 8, !tbaa !45
  store i64 %2, ptr %7, align 8, !tbaa !26
  call void @llvm.lifetime.start.p0(i64 8, ptr %8) #11
  call void @llvm.lifetime.start.p0(i64 8, ptr %9) #11
  call void @llvm.lifetime.start.p0(i64 8, ptr %10) #11
  store i64 -1, ptr %10, align 8, !tbaa !26
  store i64 0, ptr %8, align 8, !tbaa !26
  br label %12

12:                                               ; preds = %29, %3
  %13 = load i64, ptr %8, align 8, !tbaa !26
  %14 = load ptr, ptr %5, align 8, !tbaa !3
  %15 = getelementptr inbounds nuw %struct.tng_trajectory, ptr %14, i32 0, i32 27
  %16 = load i64, ptr %15, align 8, !tbaa !32
  %17 = icmp slt i64 %13, %16
  br i1 %17, label %18, label %32

18:                                               ; preds = %12
  %19 = load ptr, ptr %5, align 8, !tbaa !3
  %20 = getelementptr inbounds nuw %struct.tng_trajectory, ptr %19, i32 0, i32 28
  %21 = load ptr, ptr %20, align 8, !tbaa !40
  %22 = load i64, ptr %8, align 8, !tbaa !26
  %23 = getelementptr inbounds %struct.tng_molecule, ptr %21, i64 %22
  %24 = load ptr, ptr %6, align 8, !tbaa !45
  %25 = icmp eq ptr %23, %24
  br i1 %25, label %26, label %28

26:                                               ; preds = %18
  %27 = load i64, ptr %8, align 8, !tbaa !26
  store i64 %27, ptr %10, align 8, !tbaa !26
  br label %32

28:                                               ; preds = %18
  br label %29

29:                                               ; preds = %28
  %30 = load i64, ptr %8, align 8, !tbaa !26
  %31 = add nsw i64 %30, 1
  store i64 %31, ptr %8, align 8, !tbaa !26
  br label %12, !llvm.loop !63

32:                                               ; preds = %26, %12
  %33 = load i64, ptr %10, align 8, !tbaa !26
  %34 = icmp eq i64 %33, -1
  br i1 %34, label %35, label %38

35:                                               ; preds = %32
  %36 = load ptr, ptr @stderr, align 8, !tbaa !24
  %37 = call i32 (ptr, ptr, ...) @fprintf(ptr noundef %36, ptr noundef @.str.4, ptr noundef @.str.1, i32 noundef 6733) #11
  store i32 1, ptr %4, align 4
  store i32 1, ptr %11, align 4
  br label %104

38:                                               ; preds = %32
  %39 = load ptr, ptr %5, align 8, !tbaa !3
  %40 = getelementptr inbounds nuw %struct.tng_trajectory, ptr %39, i32 0, i32 22
  %41 = load i8, ptr %40, align 8, !tbaa !64
  %42 = sext i8 %41 to i32
  %43 = icmp eq i32 %42, 0
  br i1 %43, label %44, label %72

44:                                               ; preds = %38
  %45 = load ptr, ptr %5, align 8, !tbaa !3
  %46 = getelementptr inbounds nuw %struct.tng_trajectory, ptr %45, i32 0, i32 29
  %47 = load ptr, ptr %46, align 8, !tbaa !46
  %48 = load i64, ptr %10, align 8, !tbaa !26
  %49 = getelementptr inbounds i64, ptr %47, i64 %48
  %50 = load i64, ptr %49, align 8, !tbaa !26
  store i64 %50, ptr %9, align 8, !tbaa !26
  %51 = load i64, ptr %7, align 8, !tbaa !26
  %52 = load ptr, ptr %5, align 8, !tbaa !3
  %53 = getelementptr inbounds nuw %struct.tng_trajectory, ptr %52, i32 0, i32 29
  %54 = load ptr, ptr %53, align 8, !tbaa !46
  %55 = load i64, ptr %10, align 8, !tbaa !26
  %56 = getelementptr inbounds i64, ptr %54, i64 %55
  store i64 %51, ptr %56, align 8, !tbaa !26
  %57 = load i64, ptr %7, align 8, !tbaa !26
  %58 = load i64, ptr %9, align 8, !tbaa !26
  %59 = sub nsw i64 %57, %58
  %60 = load ptr, ptr %5, align 8, !tbaa !3
  %61 = getelementptr inbounds nuw %struct.tng_trajectory, ptr %60, i32 0, i32 28
  %62 = load ptr, ptr %61, align 8, !tbaa !40
  %63 = load i64, ptr %10, align 8, !tbaa !26
  %64 = getelementptr inbounds %struct.tng_molecule, ptr %62, i64 %63
  %65 = getelementptr inbounds nuw %struct.tng_molecule, ptr %64, i32 0, i32 4
  %66 = load i64, ptr %65, align 8, !tbaa !54
  %67 = mul nsw i64 %59, %66
  %68 = load ptr, ptr %5, align 8, !tbaa !3
  %69 = getelementptr inbounds nuw %struct.tng_trajectory, ptr %68, i32 0, i32 30
  %70 = load i64, ptr %69, align 8, !tbaa !65
  %71 = add nsw i64 %70, %67
  store i64 %71, ptr %69, align 8, !tbaa !65
  br label %103

72:                                               ; preds = %38
  %73 = load ptr, ptr %5, align 8, !tbaa !3
  %74 = getelementptr inbounds nuw %struct.tng_trajectory, ptr %73, i32 0, i32 35
  %75 = getelementptr inbounds nuw %struct.tng_trajectory_frame_set, ptr %74, i32 0, i32 6
  %76 = load ptr, ptr %75, align 8, !tbaa !66
  %77 = load i64, ptr %10, align 8, !tbaa !26
  %78 = getelementptr inbounds i64, ptr %76, i64 %77
  %79 = load i64, ptr %78, align 8, !tbaa !26
  store i64 %79, ptr %9, align 8, !tbaa !26
  %80 = load i64, ptr %7, align 8, !tbaa !26
  %81 = load ptr, ptr %5, align 8, !tbaa !3
  %82 = getelementptr inbounds nuw %struct.tng_trajectory, ptr %81, i32 0, i32 35
  %83 = getelementptr inbounds nuw %struct.tng_trajectory_frame_set, ptr %82, i32 0, i32 6
  %84 = load ptr, ptr %83, align 8, !tbaa !66
  %85 = load i64, ptr %10, align 8, !tbaa !26
  %86 = getelementptr inbounds i64, ptr %84, i64 %85
  store i64 %80, ptr %86, align 8, !tbaa !26
  %87 = load i64, ptr %7, align 8, !tbaa !26
  %88 = load i64, ptr %9, align 8, !tbaa !26
  %89 = sub nsw i64 %87, %88
  %90 = load ptr, ptr %5, align 8, !tbaa !3
  %91 = getelementptr inbounds nuw %struct.tng_trajectory, ptr %90, i32 0, i32 28
  %92 = load ptr, ptr %91, align 8, !tbaa !40
  %93 = load i64, ptr %10, align 8, !tbaa !26
  %94 = getelementptr inbounds %struct.tng_molecule, ptr %92, i64 %93
  %95 = getelementptr inbounds nuw %struct.tng_molecule, ptr %94, i32 0, i32 4
  %96 = load i64, ptr %95, align 8, !tbaa !54
  %97 = mul nsw i64 %89, %96
  %98 = load ptr, ptr %5, align 8, !tbaa !3
  %99 = getelementptr inbounds nuw %struct.tng_trajectory, ptr %98, i32 0, i32 35
  %100 = getelementptr inbounds nuw %struct.tng_trajectory_frame_set, ptr %99, i32 0, i32 7
  %101 = load i64, ptr %100, align 8, !tbaa !67
  %102 = add nsw i64 %101, %97
  store i64 %102, ptr %100, align 8, !tbaa !67
  br label %103

103:                                              ; preds = %72, %44
  store i32 0, ptr %4, align 4
  store i32 1, ptr %11, align 4
  br label %104

104:                                              ; preds = %103, %35
  call void @llvm.lifetime.end.p0(i64 8, ptr %10) #11
  call void @llvm.lifetime.end.p0(i64 8, ptr %9) #11
  call void @llvm.lifetime.end.p0(i64 8, ptr %8) #11
  %105 = load i32, ptr %4, align 4
  ret i32 %105
}