; Function Attrs: nofree nounwind uwtable
define range(i32 0, 2) i32 @tng_molecule_cnt_set(ptr noundef captures(none) %0, ptr noundef readnone %1, i64 noundef %2) local_unnamed_addr #10 {
  %4 = getelementptr inbounds nuw i8, ptr %0, i64 208
  %5 = load i64, ptr %4, align 8, !tbaa !19
  %6 = icmp sgt i64 %5, 0
  br i1 %6, label %.lr.ph, label %._crit_edge

.lr.ph:                                           ; preds = %3
  %7 = getelementptr inbounds nuw i8, ptr %0, i64 216
  %8 = load ptr, ptr %7, align 8, !tbaa !28
  br label %9

9:                                                ; preds = %.lr.ph, %12
  %.02933 = phi i64 [ 0, %.lr.ph ], [ %13, %12 ]
  %10 = getelementptr inbounds nuw %struct.tng_molecule, ptr %8, i64 %.02933
  %11 = icmp eq ptr %10, %1
  br i1 %11, label %16, label %12

12:                                               ; preds = %9
  %13 = add nuw nsw i64 %.02933, 1
  %exitcond.not = icmp eq i64 %13, %5
  br i1 %exitcond.not, label %._crit_edge, label %9, !llvm.loop !46

._crit_edge:                                      ; preds = %12, %3
  %14 = load ptr, ptr @stderr, align 8, !tbaa !14
  %15 = tail call i32 (ptr, ptr, ...) @fprintf(ptr noundef %14, ptr noundef nonnull @.str.4, ptr noundef nonnull @.str.1, i32 noundef 6733) #29
  br label %43

16:                                               ; preds = %9
  %17 = getelementptr inbounds nuw i8, ptr %0, i64 168
  %18 = load i8, ptr %17, align 8, !tbaa !47
  %19 = icmp eq i8 %18, 0
  %20 = getelementptr inbounds nuw %struct.tng_molecule, ptr %8, i64 %.02933, i32 4
  br i1 %19, label %21, label %32

21:                                               ; preds = %16
  %22 = getelementptr inbounds nuw i8, ptr %0, i64 224
  %23 = load ptr, ptr %22, align 8, !tbaa !34
  %24 = getelementptr inbounds nuw i64, ptr %23, i64 %.02933
  %25 = load i64, ptr %24, align 8, !tbaa !38
  store i64 %2, ptr %24, align 8, !tbaa !38
  %26 = sub nsw i64 %2, %25
  %27 = load i64, ptr %20, align 8, !tbaa !48
  %28 = mul nsw i64 %27, %26
  %29 = getelementptr inbounds nuw i8, ptr %0, i64 232
  %30 = load i64, ptr %29, align 8, !tbaa !49
  %31 = add nsw i64 %30, %28
  store i64 %31, ptr %29, align 8, !tbaa !49
  br label %43

32:                                               ; preds = %16
  %33 = getelementptr inbounds nuw i8, ptr %0, i64 320
  %34 = load ptr, ptr %33, align 8, !tbaa !50
  %35 = getelementptr inbounds nuw i64, ptr %34, i64 %.02933
  %36 = load i64, ptr %35, align 8, !tbaa !38
  store i64 %2, ptr %35, align 8, !tbaa !38
  %37 = sub nsw i64 %2, %36
  %38 = load i64, ptr %20, align 8, !tbaa !48
  %39 = mul nsw i64 %38, %37
  %40 = getelementptr inbounds nuw i8, ptr %0, i64 328
  %41 = load i64, ptr %40, align 8, !tbaa !51
  %42 = add nsw i64 %41, %39
  store i64 %42, ptr %40, align 8, !tbaa !51
  br label %43

43:                                               ; preds = %21, %32, %._crit_edge
  %.030 = phi i32 [ 1, %._crit_edge ], [ 0, %32 ], [ 0, %21 ]
  ret i32 %.030
}